target datalayout = "e-m:e-p270:32:32-p271:32:32-p272:64:64-i64:64-i128:128-f80:128-n8:16:32:64-S128"
target triple = "x86_64-pc-linux-gnu"

%struct._lv_menu_t = type { %struct._lv_obj_t, ptr, ptr, ptr, ptr, ptr, ptr, ptr, ptr, ptr, ptr, ptr, ptr, %struct.lv_ll_t, i8, i8, i8 }
%struct._lv_obj_t = type { ptr, ptr, ptr, ptr, ptr, %struct.lv_area_t, i32, i16, i16 }
%struct.lv_area_t = type { i32, i32, i32, i32 }
%struct.lv_ll_t = type { i32, ptr, ptr }
%struct._lv_menu_history_t = type { ptr }

; Function Attrs: nounwind uwtable
define zeroext i1 @lv_menu_back_button_is_root(ptr noundef %0, ptr noundef %1) #0 {
  %3 = alloca i1, align 1
  %4 = alloca ptr, align 8
  %5 = alloca ptr, align 8
  store ptr %0, ptr %4, align 8, !tbaa !3
  store ptr %1, ptr %5, align 8, !tbaa !3
  br label %6

6:                                                ; preds = %2
  br label %7

7:                                                ; preds = %6
  %8 = load ptr, ptr %5, align 8, !tbaa !3
  %9 = load ptr, ptr %4, align 8, !tbaa !3
  %10 = getelementptr inbounds nuw %struct._lv_menu_t, ptr %9, i32 0, i32 10
  %11 = load ptr, ptr %10, align 8, !tbaa !18
  %12 = icmp eq ptr %8, %11
  br i1 %12, label %13, label %14

13:                                               ; preds = %7
  store i1 true, ptr %3, align 1
  br label %28

14:                                               ; preds = %7
  %15 = load ptr, ptr %5, align 8, !tbaa !3
  %16 = load ptr, ptr %4, align 8, !tbaa !3
  %17 = getelementptr inbounds nuw %struct._lv_menu_t, ptr %16, i32 0, i32 5
  %18 = load ptr, ptr %17, align 8, !tbaa !23
  %19 = icmp eq ptr %15, %18
  br i1 %19, label %20, label %27

20:                                               ; preds = %14
  %21 = load ptr, ptr %4, align 8, !tbaa !3
  %22 = getelementptr inbounds nuw %struct._lv_menu_t, ptr %21, i32 0, i32 15
  %23 = load i8, ptr %22, align 1, !tbaa !14
  %24 = zext i8 %23 to i32
  %25 = icmp sle i32 %24, 1
  br i1 %25, label %26, label %27

26:                                               ; preds = %20
  store i1 true, ptr %3, align 1
  br label %28

27:                                               ; preds = %20, %14
  store i1 false, ptr %3, align 1
  br label %28

28:                                               ; preds = %27, %26, %13
  %29 = load i1, ptr %3, align 1
  ret i1 %29
}

; Function Attrs: nounwind uwtable
define internal void @lv_menu_back_event_cb(ptr noundef %0) #0 {
  %2 = alloca ptr, align 8
  %3 = alloca i32, align 4
  %4 = alloca ptr, align 8
  %5 = alloca ptr, align 8
  %6 = alloca i32, align 4
  %7 = alloca ptr, align 8
  %8 = alloca ptr, align 8
  %9 = alloca ptr, align 8
  store ptr %0, ptr %2, align 8, !tbaa !3
  call void @llvm.lifetime.start.p0(i64 4, ptr %3) #3
  %10 = load ptr, ptr %2, align 8, !tbaa !3
  %11 = call i32 @lv_event_get_code(ptr noundef %10)
  store i32 %11, ptr %3, align 4, !tbaa !35
  %12 = load i32, ptr %3, align 4, !tbaa !35
  %13 = icmp eq i32 %12, 10
  br i1 %13, label %14, label %75

14:                                               ; preds = %1
  call void @llvm.lifetime.start.p0(i64 8, ptr %4) #3
  %15 = load ptr, ptr %2, align 8, !tbaa !3
  %16 = call ptr @lv_event_get_current_target(ptr noundef %15)
  store ptr %16, ptr %4, align 8, !tbaa !3
  call void @llvm.lifetime.start.p0(i64 8, ptr %5) #3
  %17 = load ptr, ptr %2, align 8, !tbaa !3
  %18 = call ptr @lv_event_get_user_data(ptr noundef %17)
  store ptr %18, ptr %5, align 8, !tbaa !3
  %19 = load ptr, ptr %4, align 8, !tbaa !3
  %20 = load ptr, ptr %5, align 8, !tbaa !3
  %21 = getelementptr inbounds nuw %struct._lv_menu_t, ptr %20, i32 0, i32 5
  %22 = load ptr, ptr %21, align 8, !tbaa !23
  %23 = icmp eq ptr %19, %22
  br i1 %23, label %31, label %24

24:                                               ; preds = %14
  %25 = load ptr, ptr %4, align 8, !tbaa !3
  %26 = load ptr, ptr %5, align 8, !tbaa !3
  %27 = getelementptr inbounds nuw %struct._lv_menu_t, ptr %26, i32 0, i32 10
  %28 = load ptr, ptr %27, align 8, !tbaa !18
  %29 = icmp eq ptr %25, %28
  br i1 %29, label %31, label %30

30:                                               ; preds = %24
  store i32 1, ptr %6, align 4
  br label %72

31:                                               ; preds = %24, %14
  %32 = load ptr, ptr %5, align 8, !tbaa !3
  %33 = getelementptr inbounds nuw %struct._lv_menu_t, ptr %32, i32 0, i32 14
  %34 = load i8, ptr %33, align 8, !tbaa !7
  %35 = load ptr, ptr %5, align 8, !tbaa !3
  %36 = getelementptr inbounds nuw %struct._lv_menu_t, ptr %35, i32 0, i32 15
  store i8 %34, ptr %36, align 1, !tbaa !14
  %37 = load ptr, ptr %5, align 8, !tbaa !3
  %38 = load ptr, ptr %4, align 8, !tbaa !3
  %39 = call zeroext i1 @lv_menu_back_button_is_root(ptr noundef %37, ptr noundef %38)
  br i1 %39, label %40, label %41

40:                                               ; preds = %31
  store i32 1, ptr %6, align 4
  br label %72

41:                                               ; preds = %31
  call void @llvm.lifetime.start.p0(i64 8, ptr %7) #3
  %42 = load ptr, ptr %5, align 8, !tbaa !3
  %43 = getelementptr inbounds nuw %struct._lv_menu_t, ptr %42, i32 0, i32 13
  store ptr %43, ptr %7, align 8, !tbaa !3
  call void @llvm.lifetime.start.p0(i64 8, ptr %8) #3
  %44 = load ptr, ptr %7, align 8, !tbaa !3
  %45 = call ptr @lv_ll_get_head(ptr noundef %44)
  store ptr %45, ptr %8, align 8, !tbaa !3
  call void @llvm.lifetime.start.p0(i64 8, ptr %9) #3
  %46 = load ptr, ptr %7, align 8, !tbaa !3
  %47 = load ptr, ptr %8, align 8, !tbaa !3
  %48 = call ptr @lv_ll_get_next(ptr noundef %46, ptr noundef %47)
  store ptr %48, ptr %9, align 8, !tbaa !3
  %49 = load ptr, ptr %9, align 8, !tbaa !3
  %50 = icmp ne ptr %49, null
  br i1 %50, label %51, label %71

51:                                               ; preds = %41
  %52 = load ptr, ptr %7, align 8, !tbaa !3
  %53 = load ptr, ptr %8, align 8, !tbaa !3
  call void @lv_ll_remove(ptr noundef %52, ptr noundef %53)
  %54 = load ptr, ptr %8, align 8, !tbaa !3
  call void @lv_free(ptr noundef %54)
  %55 = load ptr, ptr %5, align 8, !tbaa !3
  %56 = getelementptr inbounds nuw %struct._lv_menu_t, ptr %55, i32 0, i32 14
  %57 = load i8, ptr %56, align 8, !tbaa !7
  %58 = add i8 %57, -1
  store i8 %58, ptr %56, align 8, !tbaa !7
  %59 = load ptr, ptr %7, align 8, !tbaa !3
  %60 = load ptr, ptr %9, align 8, !tbaa !3
  call void @lv_ll_remove(ptr noundef %59, ptr noundef %60)
  %61 = load ptr, ptr %5, align 8, !tbaa !3
  %62 = getelementptr inbounds nuw %struct._lv_menu_t, ptr %61, i32 0, i32 14
  %63 = load i8, ptr %62, align 8, !tbaa !7
  %64 = add i8 %63, -1
  store i8 %64, ptr %62, align 8, !tbaa !7
  %65 = load ptr, ptr %5, align 8, !tbaa !3
  %66 = getelementptr inbounds nuw %struct._lv_menu_t, ptr %65, i32 0, i32 0
  %67 = load ptr, ptr %9, align 8, !tbaa !3
  %68 = getelementptr inbounds nuw %struct._lv_menu_history_t, ptr %67, i32 0, i32 0
  %69 = load ptr, ptr %68, align 8, !tbaa !33
  call void @lv_menu_set_page(ptr noundef %66, ptr noundef %69)
  %70 = load ptr, ptr %9, align 8, !tbaa !3
  call void @lv_free(ptr noundef %70)
  br label %71

71:                                               ; preds = %51, %41
  call void @llvm.lifetime.end.p0(i64 8, ptr %9) #3
  call void @llvm.lifetime.end.p0(i64 8, ptr %8) #3
  call void @llvm.lifetime.end.p0(i64 8, ptr %7) #3
  store i32 0, ptr %6, align 4
  br label %72

72:                                               ; preds = %71, %40, %30
  call void @llvm.lifetime.end.p0(i64 8, ptr %5) #3
  call void @llvm.lifetime.end.p0(i64 8, ptr %4) #3
  %73 = load i32, ptr %6, align 4
  switch i32 %73, label %76 [
    i32 0, label %74
  ]

74:                                               ; preds = %72
  br label %75

75:                                               ; preds = %74, %1
  store i32 0, ptr %6, align 4
  br label %76

76:                                               ; preds = %75, %72
  call void @llvm.lifetime.end.p0(i64 4, ptr %3) #3
  %77 = load i32, ptr %6, align 4
  switch i32 %77, label %79 [
    i32 0, label %78
    i32 1, label %78
  ]

78:                                               ; preds = %76, %76
  ret void

79:                                               ; preds = %76
  unreachable
}