; Function Attrs: nounwind uwtable
define internal void @lv_menu_back_event_cb(ptr noundef %0) #0 {
  %2 = tail call i32 @lv_event_get_code(ptr noundef %0) #4
  %3 = icmp eq i32 %2, 10
  br i1 %3, label %4, label %.critedge

4:                                                ; preds = %1
  %5 = tail call ptr @lv_event_get_current_target(ptr noundef %0) #4
  %6 = tail call ptr @lv_event_get_user_data(ptr noundef %0) #4
  %7 = getelementptr inbounds nuw i8, ptr %6, i64 96
  %8 = load ptr, ptr %7, align 8, !tbaa !17
  %9 = icmp eq ptr %5, %8
  br i1 %9, label %14, label %10

10:                                               ; preds = %4
  %11 = getelementptr inbounds nuw i8, ptr %6, i64 136
  %12 = load ptr, ptr %11, align 8, !tbaa !30
  %13 = icmp eq ptr %5, %12
  br i1 %13, label %.thread, label %.critedge

14:                                               ; preds = %4
  %15 = getelementptr inbounds nuw i8, ptr %6, i64 184
  %16 = load i8, ptr %15, align 8, !tbaa !3
  %17 = getelementptr inbounds nuw i8, ptr %6, i64 185
  store i8 %16, ptr %17, align 1, !tbaa !13
  %18 = getelementptr inbounds nuw i8, ptr %6, i64 136
  %19 = load ptr, ptr %18, align 8, !tbaa !30
  %20 = icmp eq ptr %5, %19
  %21 = icmp ult i8 %16, 2
  %or.cond = select i1 %20, i1 true, i1 %21
  br i1 %or.cond, label %.critedge, label %lv_menu_back_button_is_root.exit

.thread:                                          ; preds = %10
  %22 = getelementptr inbounds nuw i8, ptr %6, i64 184
  %23 = load i8, ptr %22, align 8, !tbaa !3
  %24 = getelementptr inbounds nuw i8, ptr %6, i64 185
  store i8 %23, ptr %24, align 1, !tbaa !13
  br label %.critedge

lv_menu_back_button_is_root.exit:                 ; preds = %14
  %25 = getelementptr inbounds nuw i8, ptr %6, i64 160
  %26 = tail call ptr @lv_ll_get_head(ptr noundef nonnull %25) #4
  %27 = tail call ptr @lv_ll_get_next(ptr noundef nonnull %25, ptr noundef %26) #4
  %.not = icmp eq ptr %27, null
  br i1 %.not, label %.critedge, label %28

28:                                               ; preds = %lv_menu_back_button_is_root.exit
  tail call void @lv_ll_remove(ptr noundef nonnull %25, ptr noundef %26) #4
  tail call void @lv_free(ptr noundef %26) #4
  %29 = load i8, ptr %15, align 8, !tbaa !3
  %30 = add i8 %29, -1
  store i8 %30, ptr %15, align 8, !tbaa !3
  tail call void @lv_ll_remove(ptr noundef nonnull %25, ptr noundef nonnull %27) #4
  %31 = load i8, ptr %15, align 8, !tbaa !3
  %32 = add i8 %31, -1
  store i8 %32, ptr %15, align 8, !tbaa !3
  %33 = load ptr, ptr %27, align 8, !tbaa !27
  tail call void @lv_menu_set_page(ptr noundef nonnull %6, ptr noundef %33)
  tail call void @lv_free(ptr noundef nonnull %27) #4
  br label %.critedge

.critedge:                                        ; preds = %.thread, %14, %10, %1, %lv_menu_back_button_is_root.exit, %28
  ret void
}